; Function Attrs: nounwind uwtable
define internal fastcc noalias noundef ptr @AllocUserData() unnamed_addr #0 {
  %1 = tail call noalias dereferenceable_or_null(2472) ptr @malloc(i64 noundef 2472) #12
  %2 = getelementptr inbounds nuw i8, ptr %1, i64 800
  %3 = getelementptr inbounds nuw i8, ptr %1, i64 1600
  br label %.preheader

.preheader:                                       ; preds = %0, %11
  %indvars.iv17 = phi i64 [ 0, %0 ], [ %indvars.iv.next18, %11 ]
  br label %4

4:                                                ; preds = %.preheader, %4
  %indvars.iv = phi i64 [ 0, %.preheader ], [ %indvars.iv.next, %4 ]
  %5 = tail call ptr @SUNDlsMat_newDenseMat(i64 noundef 2, i64 noundef 2) #10
  %6 = getelementptr inbounds nuw [10 x [10 x ptr]], ptr %1, i64 0, i64 %indvars.iv17, i64 %indvars.iv
  store ptr %5, ptr %6, align 8, !tbaa !29
  %7 = tail call ptr @SUNDlsMat_newDenseMat(i64 noundef 2, i64 noundef 2) #10
  %8 = getelementptr inbounds nuw [10 x [10 x ptr]], ptr %2, i64 0, i64 %indvars.iv17, i64 %indvars.iv
  store ptr %7, ptr %8, align 8, !tbaa !29
  %9 = tail call ptr @SUNDlsMat_newIndexArray(i64 noundef 2) #10
  %10 = getelementptr inbounds nuw [10 x [10 x ptr]], ptr %3, i64 0, i64 %indvars.iv17, i64 %indvars.iv
  store ptr %9, ptr %10, align 8, !tbaa !31
  %indvars.iv.next = add nuw nsw i64 %indvars.iv, 1
  %exitcond.not = icmp eq i64 %indvars.iv.next, 10
  br i1 %exitcond.not, label %11, label %4

11:                                               ; preds = %4
  %indvars.iv.next18 = add nuw nsw i64 %indvars.iv17, 1
  %exitcond20.not = icmp eq i64 %indvars.iv.next18, 10
  br i1 %exitcond20.not, label %12, label %.preheader

12:                                               ; preds = %11
  ret ptr %1
}